target datalayout = "e-m:e-p270:32:32-p271:32:32-p272:64:64-i64:64-i128:128-f80:128-n8:16:32:64-S128"
target triple = "x86_64-pc-linux-gnu"

%struct.run_command_args_t = type { ptr, ptr, ptr, i8, i32, i32, i8, ptr, ptr, ptr, ptr, i64, ptr, i8 }

@.str.10 = private unnamed_addr constant [15 x i8] c"/usr/bin/xauth\00", align 1
@.str.11 = private unnamed_addr constant [6 x i8] c"xauth\00", align 1
@.str.14 = private unnamed_addr constant [11 x i8] c"x11_util.c\00", align 1
@.str.24 = private unnamed_addr constant [3 x i8] c"-v\00", align 1
@.str.25 = private unnamed_addr constant [3 x i8] c"-f\00", align 1
@.str.27 = private unnamed_addr constant [26 x i8] c"%s: result from xauth: %s\00", align 1
@__func__.x11_delete_xauth = private unnamed_addr constant [17 x i8] c"x11_delete_xauth\00", align 1
@.str.29 = private unnamed_addr constant [7 x i8] c"remove\00", align 1
@.str.30 = private unnamed_addr constant [11 x i8] c"%s/unix:%u\00", align 1

; Function Attrs: nounwind uwtable
define dso_local i32 @x11_delete_xauth(ptr noundef %0, ptr noundef %1, i16 noundef zeroext %2) #0 {
  %4 = alloca ptr, align 8
  %5 = alloca ptr, align 8
  %6 = alloca i16, align 2
  %7 = alloca i32, align 4
  %8 = alloca i32, align 4
  %9 = alloca ptr, align 8
  %10 = alloca ptr, align 8
  %11 = alloca %struct.run_command_args_t, align 8
  store ptr %0, ptr %4, align 8
  store ptr %1, ptr %5, align 8
  store i16 %2, ptr %6, align 2
  call void @llvm.lifetime.start.p0(i64 4, ptr %7) #11
  store i32 0, ptr %7, align 4
  call void @llvm.lifetime.start.p0(i64 4, ptr %8) #11
  call void @llvm.lifetime.start.p0(i64 8, ptr %9) #11
  call void @llvm.lifetime.start.p0(i64 8, ptr %10) #11
  call void @llvm.lifetime.start.p0(i64 96, ptr %11) #11
  %12 = getelementptr inbounds nuw %struct.run_command_args_t, ptr %11, i32 0, i32 0
  store ptr null, ptr %12, align 8
  %13 = getelementptr inbounds nuw %struct.run_command_args_t, ptr %11, i32 0, i32 1
  store ptr null, ptr %13, align 8
  %14 = getelementptr inbounds nuw %struct.run_command_args_t, ptr %11, i32 0, i32 2
  store ptr null, ptr %14, align 8
  %15 = getelementptr inbounds nuw %struct.run_command_args_t, ptr %11, i32 0, i32 3
  store i8 0, ptr %15, align 8
  %16 = getelementptr i8, ptr %11, i64 25
  call void @llvm.memset.p0.i64(ptr align 1 %16, i8 0, i64 3, i1 false)
  %17 = getelementptr inbounds nuw %struct.run_command_args_t, ptr %11, i32 0, i32 4
  store i32 0, ptr %17, align 4
  %18 = getelementptr inbounds nuw %struct.run_command_args_t, ptr %11, i32 0, i32 5
  store i32 10000, ptr %18, align 8
  %19 = getelementptr inbounds nuw %struct.run_command_args_t, ptr %11, i32 0, i32 6
  store i8 0, ptr %19, align 4
  %20 = getelementptr i8, ptr %11, i64 37
  call void @llvm.memset.p0.i64(ptr align 1 %20, i8 0, i64 3, i1 false)
  %21 = getelementptr inbounds nuw %struct.run_command_args_t, ptr %11, i32 0, i32 7
  store ptr null, ptr %21, align 8
  %22 = getelementptr inbounds nuw %struct.run_command_args_t, ptr %11, i32 0, i32 8
  store ptr @.str.10, ptr %22, align 8
  %23 = getelementptr inbounds nuw %struct.run_command_args_t, ptr %11, i32 0, i32 9
  store ptr @.str.11, ptr %23, align 8
  %24 = getelementptr inbounds nuw %struct.run_command_args_t, ptr %11, i32 0, i32 10
  store ptr %8, ptr %24, align 8
  %25 = getelementptr inbounds nuw %struct.run_command_args_t, ptr %11, i32 0, i32 11
  store i64 0, ptr %25, align 8
  %26 = getelementptr inbounds nuw %struct.run_command_args_t, ptr %11, i32 0, i32 12
  store ptr null, ptr %26, align 8
  %27 = getelementptr inbounds nuw %struct.run_command_args_t, ptr %11, i32 0, i32 13
  store i8 0, ptr %27, align 8
  %28 = getelementptr i8, ptr %11, i64 89
  call void @llvm.memset.p0.i64(ptr align 1 %28, i8 0, i64 7, i1 false)
  %29 = call ptr @slurm_xcalloc(i64 noundef 1, i64 noundef 80, i1 noundef zeroext true, i1 noundef zeroext false, ptr noundef @.str.14, i32 noundef 311, ptr noundef @__func__.x11_delete_xauth)
  store ptr %29, ptr %10, align 8
  %30 = call ptr @xstrdup(ptr noundef @.str.11)
  %31 = load ptr, ptr %10, align 8
  %32 = load i32, ptr %7, align 4
  %33 = add nsw i32 %32, 1
  store i32 %33, ptr %7, align 4
  %34 = sext i32 %32 to i64
  %35 = getelementptr inbounds ptr, ptr %31, i64 %34
  store ptr %30, ptr %35, align 8
  %36 = call ptr @xstrdup(ptr noundef @.str.24)
  %37 = load ptr, ptr %10, align 8
  %38 = load i32, ptr %7, align 4
  %39 = add nsw i32 %38, 1
  store i32 %39, ptr %7, align 4
  %40 = sext i32 %38 to i64
  %41 = getelementptr inbounds ptr, ptr %37, i64 %40
  store ptr %36, ptr %41, align 8
  %42 = call ptr @xstrdup(ptr noundef @.str.25)
  %43 = load ptr, ptr %10, align 8
  %44 = load i32, ptr %7, align 4
  %45 = add nsw i32 %44, 1
  store i32 %45, ptr %7, align 4
  %46 = sext i32 %44 to i64
  %47 = getelementptr inbounds ptr, ptr %43, i64 %46
  store ptr %42, ptr %47, align 8
  %48 = load ptr, ptr %4, align 8
  %49 = call ptr @xstrdup(ptr noundef %48)
  %50 = load ptr, ptr %10, align 8
  %51 = load i32, ptr %7, align 4
  %52 = add nsw i32 %51, 1
  store i32 %52, ptr %7, align 4
  %53 = sext i32 %51 to i64
  %54 = getelementptr inbounds ptr, ptr %50, i64 %53
  store ptr %49, ptr %54, align 8
  %55 = call ptr @xstrdup(ptr noundef @.str.29)
  %56 = load ptr, ptr %10, align 8
  %57 = load i32, ptr %7, align 4
  %58 = add nsw i32 %57, 1
  store i32 %58, ptr %7, align 4
  %59 = sext i32 %57 to i64
  %60 = getelementptr inbounds ptr, ptr %56, i64 %59
  store ptr %55, ptr %60, align 8
  %61 = load ptr, ptr %5, align 8
  %62 = load i16, ptr %6, align 2
  %63 = zext i16 %62 to i32
  %64 = call ptr (ptr, ...) @xstrdup_printf(ptr noundef @.str.30, ptr noundef %61, i32 noundef %63)
  %65 = load ptr, ptr %10, align 8
  %66 = load i32, ptr %7, align 4
  %67 = add nsw i32 %66, 1
  store i32 %67, ptr %7, align 4
  %68 = sext i32 %66 to i64
  %69 = getelementptr inbounds ptr, ptr %65, i64 %68
  store ptr %64, ptr %69, align 8
  %70 = load ptr, ptr %10, align 8
  %71 = load i32, ptr %7, align 4
  %72 = add nsw i32 %71, 1
  store i32 %72, ptr %7, align 4
  %73 = sext i32 %71 to i64
  %74 = getelementptr inbounds ptr, ptr %70, i64 %73
  store ptr null, ptr %74, align 8
  %75 = load ptr, ptr %10, align 8
  %76 = getelementptr inbounds nuw %struct.run_command_args_t, ptr %11, i32 0, i32 7
  store ptr %75, ptr %76, align 8
  %77 = call ptr @run_command(ptr noundef %11)
  store ptr %77, ptr %9, align 8
  call void @slurm_xfree_array(ptr noundef %10)
  br label %78

78:                                               ; preds = %3
  br label %79

79:                                               ; preds = %78
  %80 = call i32 @get_log_level()
  %81 = icmp sge i32 %80, 6
  br i1 %81, label %82, label %84

82:                                               ; preds = %79
  %83 = load ptr, ptr %9, align 8
  call void (i32, ptr, ...) @log_var(i32 noundef 6, ptr noundef @.str.27, ptr noundef @__func__.x11_delete_xauth, ptr noundef %83)
  br label %84

84:                                               ; preds = %82, %79
  br label %85

85:                                               ; preds = %84
  br label %86

86:                                               ; preds = %85
  br label %87

87:                                               ; preds = %86
  br label %88

88:                                               ; preds = %87
  call void @slurm_xfree(ptr noundef %9)
  %89 = load i32, ptr %8, align 4
  call void @llvm.lifetime.end.p0(i64 96, ptr %11) #11
  call void @llvm.lifetime.end.p0(i64 8, ptr %10) #11
  call void @llvm.lifetime.end.p0(i64 8, ptr %9) #11
  call void @llvm.lifetime.end.p0(i64 4, ptr %8) #11
  call void @llvm.lifetime.end.p0(i64 4, ptr %7) #11
  ret i32 %89
}