; Function Attrs: nounwind uwtable
define dso_local i32 @x11_delete_xauth(ptr noundef %0, ptr noundef %1, i16 noundef zeroext %2) local_unnamed_addr #0 {
  %4 = alloca i32, align 4
  %5 = alloca ptr, align 8
  %6 = alloca ptr, align 8
  %7 = alloca %struct.run_command_args_t, align 8
  call void @llvm.lifetime.start.p0(i64 4, ptr nonnull %4) #15
  call void @llvm.lifetime.start.p0(i64 8, ptr nonnull %5) #15
  call void @llvm.lifetime.start.p0(i64 8, ptr nonnull %6) #15
  call void @llvm.lifetime.start.p0(i64 96, ptr nonnull %7) #15
  %8 = getelementptr inbounds nuw i8, ptr %7, i64 32
  call void @llvm.memset.p0.i64(ptr noundef nonnull align 8 dereferenceable(32) %7, i8 0, i64 32, i1 false)
  store i32 10000, ptr %8, align 8
  %9 = getelementptr inbounds nuw i8, ptr %7, i64 36
  %10 = getelementptr inbounds nuw i8, ptr %7, i64 40
  %11 = getelementptr inbounds nuw i8, ptr %7, i64 48
  store i32 0, ptr %9, align 4
  store ptr @.str.10, ptr %11, align 8
  %12 = getelementptr inbounds nuw i8, ptr %7, i64 56
  store ptr @.str.11, ptr %12, align 8
  %13 = getelementptr inbounds nuw i8, ptr %7, i64 64
  store ptr %4, ptr %13, align 8
  %14 = getelementptr inbounds nuw i8, ptr %7, i64 72
  call void @llvm.memset.p0.i64(ptr noundef nonnull align 8 dereferenceable(24) %14, i8 0, i64 24, i1 false)
  %15 = call ptr @slurm_xcalloc(i64 noundef 1, i64 noundef 80, i1 noundef zeroext true, i1 noundef zeroext false, ptr noundef nonnull @.str.14, i32 noundef 311, ptr noundef nonnull @__func__.x11_delete_xauth) #15
  store ptr %15, ptr %6, align 8
  %16 = call ptr @xstrdup(ptr noundef nonnull @.str.11) #15
  store ptr %16, ptr %15, align 8
  %17 = call ptr @xstrdup(ptr noundef nonnull @.str.24) #15
  %18 = getelementptr inbounds nuw i8, ptr %15, i64 8
  store ptr %17, ptr %18, align 8
  %19 = call ptr @xstrdup(ptr noundef nonnull @.str.25) #15
  %20 = getelementptr inbounds nuw i8, ptr %15, i64 16
  store ptr %19, ptr %20, align 8
  %21 = call ptr @xstrdup(ptr noundef %0) #15
  %22 = getelementptr inbounds nuw i8, ptr %15, i64 24
  store ptr %21, ptr %22, align 8
  %23 = call ptr @xstrdup(ptr noundef nonnull @.str.29) #15
  %24 = getelementptr inbounds nuw i8, ptr %15, i64 32
  store ptr %23, ptr %24, align 8
  %25 = zext i16 %2 to i32
  %26 = call ptr (ptr, ...) @xstrdup_printf(ptr noundef nonnull @.str.30, ptr noundef %1, i32 noundef %25) #15
  %27 = getelementptr inbounds nuw i8, ptr %15, i64 40
  store ptr %26, ptr %27, align 8
  %28 = getelementptr inbounds nuw i8, ptr %15, i64 48
  store ptr null, ptr %28, align 8
  store ptr %15, ptr %10, align 8
  %29 = call ptr @run_command(ptr noundef nonnull %7) #15
  store ptr %29, ptr %5, align 8
  call void @slurm_xfree_array(ptr noundef nonnull %6) #15
  %30 = call i32 @get_log_level() #15
  %31 = icmp sgt i32 %30, 5
  br i1 %31, label %32, label %33

32:                                               ; preds = %3
  call void (i32, ptr, ...) @log_var(i32 noundef 6, ptr noundef nonnull @.str.27, ptr noundef nonnull @__func__.x11_delete_xauth, ptr noundef %29) #15
  br label %33

33:                                               ; preds = %32, %3
  call void @slurm_xfree(ptr noundef nonnull %5) #15
  %34 = load i32, ptr %4, align 4
  call void @llvm.lifetime.end.p0(i64 96, ptr nonnull %7) #15
  call void @llvm.lifetime.end.p0(i64 8, ptr nonnull %6) #15
  call void @llvm.lifetime.end.p0(i64 8, ptr nonnull %5) #15
  call void @llvm.lifetime.end.p0(i64 4, ptr nonnull %4) #15
  ret i32 %34
}